#include <math.h>
#include <stdio.h>
#include <stdlib.h>
#include <string.h>

int s[100];
int f(int a,int min){ 
if(a < min){ 
return 0; 
} 
int result = 1; 
for(int i = min;i<a;i++){ 
if(a % i == 0){ 
result += f(a/i,i); 
} 
} 
return result; 
} 

main()
{int m,mm;
scanf("%d",&m);
for(int i=0;i<m;i++){
        scanf("%d",&mm);
/*for(int i=0;i<m+1;i++){s[i]=0;printf("%d",s[i]);}*/
 printf("%d\n",f(mm,2));}
 }
